target datalayout = "e-m:e-p270:32:32-p271:32:32-p272:64:64-i64:64-i128:128-f80:128-n8:16:32:64-S128"
target triple = "x86_64-pc-linux-gnu"

%struct.Tim_Man_t_ = type { ptr, ptr, ptr, i32, i32, i32, i32, ptr, ptr }
%struct.Tim_Obj_t_ = type { i32, i32, i32, i32, float, float }

; Function Attrs: nounwind uwtable
define ptr @Tim_ManStart(i32 noundef %0, i32 noundef %1) #0 {
  %3 = alloca i32, align 4
  %4 = alloca i32, align 4
  %5 = alloca ptr, align 8
  %6 = alloca ptr, align 8
  %7 = alloca i32, align 4
  store i32 %0, ptr %3, align 4
  store i32 %1, ptr %4, align 4
  %8 = call noalias ptr @malloc(i64 noundef 56) #9
  store ptr %8, ptr %5, align 8
  %9 = load ptr, ptr %5, align 8
  call void @llvm.memset.p0.i64(ptr align 8 %9, i8 0, i64 56, i1 false)
  %10 = call ptr (...) @Mem_FlexStart()
  %11 = load ptr, ptr %5, align 8
  %12 = getelementptr inbounds %struct.Tim_Man_t_, ptr %11, i32 0, i32 2
  store ptr %10, ptr %12, align 8
  %13 = load i32, ptr %3, align 4
  %14 = load ptr, ptr %5, align 8
  %15 = getelementptr inbounds %struct.Tim_Man_t_, ptr %14, i32 0, i32 5
  store i32 %13, ptr %15, align 8
  %16 = load i32, ptr %4, align 4
  %17 = load ptr, ptr %5, align 8
  %18 = getelementptr inbounds %struct.Tim_Man_t_, ptr %17, i32 0, i32 6
  store i32 %16, ptr %18, align 4
  %19 = load i32, ptr %3, align 4
  %20 = sext i32 %19 to i64
  %21 = mul i64 24, %20
  %22 = call noalias ptr @malloc(i64 noundef %21) #9
  %23 = load ptr, ptr %5, align 8
  %24 = getelementptr inbounds %struct.Tim_Man_t_, ptr %23, i32 0, i32 7
  store ptr %22, ptr %24, align 8
  %25 = load ptr, ptr %5, align 8
  %26 = getelementptr inbounds %struct.Tim_Man_t_, ptr %25, i32 0, i32 7
  %27 = load ptr, ptr %26, align 8
  %28 = load i32, ptr %3, align 4
  %29 = sext i32 %28 to i64
  %30 = mul i64 24, %29
  call void @llvm.memset.p0.i64(ptr align 4 %27, i8 0, i64 %30, i1 false)
  %31 = load i32, ptr %4, align 4
  %32 = sext i32 %31 to i64
  %33 = mul i64 24, %32
  %34 = call noalias ptr @malloc(i64 noundef %33) #9
  %35 = load ptr, ptr %5, align 8
  %36 = getelementptr inbounds %struct.Tim_Man_t_, ptr %35, i32 0, i32 8
  store ptr %34, ptr %36, align 8
  %37 = load ptr, ptr %5, align 8
  %38 = getelementptr inbounds %struct.Tim_Man_t_, ptr %37, i32 0, i32 8
  %39 = load ptr, ptr %38, align 8
  %40 = load i32, ptr %4, align 4
  %41 = sext i32 %40 to i64
  %42 = mul i64 24, %41
  call void @llvm.memset.p0.i64(ptr align 4 %39, i8 0, i64 %42, i1 false)
  store i32 0, ptr %7, align 4
  br label %43

43:                                               ; preds = %69, %2
  %44 = load i32, ptr %7, align 4
  %45 = load ptr, ptr %5, align 8
  %46 = getelementptr inbounds %struct.Tim_Man_t_, ptr %45, i32 0, i32 5
  %47 = load i32, ptr %46, align 8
  %48 = icmp slt i32 %44, %47
  br i1 %48, label %49, label %57

49:                                               ; preds = %43
  %50 = load ptr, ptr %5, align 8
  %51 = getelementptr inbounds %struct.Tim_Man_t_, ptr %50, i32 0, i32 7
  %52 = load ptr, ptr %51, align 8
  %53 = load i32, ptr %7, align 4
  %54 = sext i32 %53 to i64
  %55 = getelementptr inbounds %struct.Tim_Obj_t_, ptr %52, i64 %54
  store ptr %55, ptr %6, align 8
  %56 = icmp ne ptr %55, null
  br label %57

57:                                               ; preds = %49, %43
  %58 = phi i1 [ false, %43 ], [ %56, %49 ]
  br i1 %58, label %59, label %72

59:                                               ; preds = %57
  %60 = load i32, ptr %7, align 4
  %61 = load ptr, ptr %6, align 8
  %62 = getelementptr inbounds %struct.Tim_Obj_t_, ptr %61, i32 0, i32 0
  store i32 %60, ptr %62, align 4
  %63 = load ptr, ptr %6, align 8
  %64 = getelementptr inbounds %struct.Tim_Obj_t_, ptr %63, i32 0, i32 3
  store i32 -1, ptr %64, align 4
  %65 = load ptr, ptr %6, align 8
  %66 = getelementptr inbounds %struct.Tim_Obj_t_, ptr %65, i32 0, i32 2
  store i32 -1, ptr %66, align 4
  %67 = load ptr, ptr %6, align 8
  %68 = getelementptr inbounds %struct.Tim_Obj_t_, ptr %67, i32 0, i32 5
  store float 1.000000e+09, ptr %68, align 4
  br label %69

69:                                               ; preds = %59
  %70 = load i32, ptr %7, align 4
  %71 = add nsw i32 %70, 1
  store i32 %71, ptr %7, align 4
  br label %43, !llvm.loop !4

72:                                               ; preds = %57
  store i32 0, ptr %7, align 4
  br label %73

73:                                               ; preds = %99, %72
  %74 = load i32, ptr %7, align 4
  %75 = load ptr, ptr %5, align 8
  %76 = getelementptr inbounds %struct.Tim_Man_t_, ptr %75, i32 0, i32 6
  %77 = load i32, ptr %76, align 4
  %78 = icmp slt i32 %74, %77
  br i1 %78, label %79, label %87

79:                                               ; preds = %73
  %80 = load ptr, ptr %5, align 8
  %81 = getelementptr inbounds %struct.Tim_Man_t_, ptr %80, i32 0, i32 8
  %82 = load ptr, ptr %81, align 8
  %83 = load i32, ptr %7, align 4
  %84 = sext i32 %83 to i64
  %85 = getelementptr inbounds %struct.Tim_Obj_t_, ptr %82, i64 %84
  store ptr %85, ptr %6, align 8
  %86 = icmp ne ptr %85, null
  br label %87

87:                                               ; preds = %79, %73
  %88 = phi i1 [ false, %73 ], [ %86, %79 ]
  br i1 %88, label %89, label %102

89:                                               ; preds = %87
  %90 = load i32, ptr %7, align 4
  %91 = load ptr, ptr %6, align 8
  %92 = getelementptr inbounds %struct.Tim_Obj_t_, ptr %91, i32 0, i32 0
  store i32 %90, ptr %92, align 4
  %93 = load ptr, ptr %6, align 8
  %94 = getelementptr inbounds %struct.Tim_Obj_t_, ptr %93, i32 0, i32 3
  store i32 -1, ptr %94, align 4
  %95 = load ptr, ptr %6, align 8
  %96 = getelementptr inbounds %struct.Tim_Obj_t_, ptr %95, i32 0, i32 2
  store i32 -1, ptr %96, align 4
  %97 = load ptr, ptr %6, align 8
  %98 = getelementptr inbounds %struct.Tim_Obj_t_, ptr %97, i32 0, i32 5
  store float 1.000000e+09, ptr %98, align 4
  br label %99

99:                                               ; preds = %89
  %100 = load i32, ptr %7, align 4
  %101 = add nsw i32 %100, 1
  store i32 %101, ptr %7, align 4
  br label %73, !llvm.loop !6

102:                                              ; preds = %87
  %103 = load ptr, ptr %5, align 8
  %104 = getelementptr inbounds %struct.Tim_Man_t_, ptr %103, i32 0, i32 4
  store i32 1, ptr %104, align 4
  %105 = load ptr, ptr %5, align 8
  ret ptr %105
}