; Function Attrs: nounwind uwtable
define noalias noundef ptr @Tim_ManStart(i32 noundef %0, i32 noundef %1) local_unnamed_addr #0 {
  %calloc = tail call dereferenceable_or_null(56) ptr @calloc(i64 1, i64 56)
  %3 = tail call ptr (...) @Mem_FlexStart() #18
  %4 = getelementptr inbounds nuw i8, ptr %calloc, i64 16
  store ptr %3, ptr %4, align 8
  %5 = getelementptr inbounds nuw i8, ptr %calloc, i64 32
  store i32 %0, ptr %5, align 8
  %6 = getelementptr inbounds nuw i8, ptr %calloc, i64 36
  store i32 %1, ptr %6, align 4
  %7 = sext i32 %0 to i64
  %8 = mul nsw i64 %7, 24
  %calloc55 = tail call ptr @calloc(i64 1, i64 %8)
  %9 = getelementptr inbounds nuw i8, ptr %calloc, i64 40
  store ptr %calloc55, ptr %9, align 8
  %10 = sext i32 %1 to i64
  %11 = mul nsw i64 %10, 24
  %calloc56 = tail call ptr @calloc(i64 1, i64 %11)
  %12 = getelementptr inbounds nuw i8, ptr %calloc, i64 48
  store ptr %calloc56, ptr %12, align 8
  %.not = icmp eq ptr %calloc55, null
  %13 = icmp slt i32 %0, 1
  %or.cond41 = or i1 %.not, %13
  br i1 %or.cond41, label %.critedge.preheader, label %.lr.ph.split.preheader

.lr.ph.split.preheader:                           ; preds = %2
  %wide.trip.count = zext nneg i32 %0 to i64
  br label %.lr.ph.split

.critedge.preheader:                              ; preds = %.lr.ph.split, %2
  %.not39 = icmp eq ptr %calloc56, null
  %14 = icmp slt i32 %1, 1
  %or.cond4043 = or i1 %.not39, %14
  br i1 %or.cond4043, label %.critedge2, label %.critedge.preheader48

.critedge.preheader48:                            ; preds = %.critedge.preheader
  %wide.trip.count53 = zext nneg i32 %1 to i64
  br label %.critedge

.lr.ph.split:                                     ; preds = %.lr.ph.split.preheader, %.lr.ph.split
  %indvars.iv = phi i64 [ 0, %.lr.ph.split.preheader ], [ %indvars.iv.next, %.lr.ph.split ]
  %15 = getelementptr inbounds nuw %struct.Tim_Obj_t_, ptr %calloc55, i64 %indvars.iv
  %16 = trunc nuw nsw i64 %indvars.iv to i32
  store i32 %16, ptr %15, align 4
  %17 = getelementptr inbounds nuw i8, ptr %15, i64 12
  store i32 -1, ptr %17, align 4
  %18 = getelementptr inbounds nuw i8, ptr %15, i64 8
  store i32 -1, ptr %18, align 4
  %19 = getelementptr inbounds nuw i8, ptr %15, i64 20
  store float 1.000000e+09, ptr %19, align 4
  %indvars.iv.next = add nuw nsw i64 %indvars.iv, 1
  %exitcond.not = icmp eq i64 %indvars.iv.next, %wide.trip.count
  br i1 %exitcond.not, label %.critedge.preheader, label %.lr.ph.split, !llvm.loop !4

.critedge:                                        ; preds = %.critedge.preheader48, %.critedge
  %indvars.iv50 = phi i64 [ 0, %.critedge.preheader48 ], [ %indvars.iv.next51, %.critedge ]
  %20 = getelementptr inbounds nuw %struct.Tim_Obj_t_, ptr %calloc56, i64 %indvars.iv50
  %21 = trunc nuw nsw i64 %indvars.iv50 to i32
  store i32 %21, ptr %20, align 4
  %22 = getelementptr inbounds nuw i8, ptr %20, i64 12
  store i32 -1, ptr %22, align 4
  %23 = getelementptr inbounds nuw i8, ptr %20, i64 8
  store i32 -1, ptr %23, align 4
  %24 = getelementptr inbounds nuw i8, ptr %20, i64 20
  store float 1.000000e+09, ptr %24, align 4
  %indvars.iv.next51 = add nuw nsw i64 %indvars.iv50, 1
  %exitcond54.not = icmp eq i64 %indvars.iv.next51, %wide.trip.count53
  br i1 %exitcond54.not, label %.critedge2, label %.critedge, !llvm.loop !6

.critedge2:                                       ; preds = %.critedge, %.critedge.preheader
  %25 = getelementptr inbounds nuw i8, ptr %calloc, i64 28
  store i32 1, ptr %25, align 4
  ret ptr %calloc
}